target datalayout = "e-m:e-p270:32:32-p271:32:32-p272:64:64-i64:64-i128:128-f80:128-n8:16:32:64-S128"
target triple = "x86_64-pc-linux-gnu"

%struct.PlannerInfo = type { i32, ptr, ptr, i32, ptr, ptr, ptr, ptr, i32, ptr, ptr, ptr, ptr, ptr, ptr, ptr, ptr, i32, ptr, ptr, ptr, ptr, ptr, i8, ptr, ptr, ptr, ptr, ptr, i32, ptr, ptr, ptr, ptr, ptr, ptr, ptr, i32, ptr, ptr, ptr, i32, ptr, ptr, ptr, ptr, ptr, ptr, [8 x ptr], [8 x ptr], ptr, ptr, ptr, ptr, ptr, ptr, ptr, double, double, double, i32, i8, i8, i8, i8, i8, i8, i8, i32, ptr, ptr, i32, i8, i8, i32, ptr, ptr, ptr, ptr, ptr, ptr, i8, ptr }
%struct.Query = type { i32, i32, i32, i64, i8, ptr, i32, i8, i8, i8, i8, i8, i8, i8, i8, i8, i8, i8, ptr, ptr, ptr, ptr, ptr, i32, ptr, ptr, i32, ptr, ptr, ptr, ptr, ptr, i8, ptr, ptr, ptr, ptr, ptr, ptr, ptr, i32, ptr, ptr, ptr, ptr, i32, i32 }
%struct.Expr = type { i32 }
%struct.Node = type { i32 }
%struct.Var = type { %struct.Expr, i32, i16, i32, i32, i32, ptr, i32, i32, i32, i16, i32 }
%struct.PlaceHolderVar = type { %struct.Expr, ptr, ptr, ptr, i32, i32 }
%struct.Aggref = type { %struct.Expr, i32, i32, i32, i32, i32, ptr, ptr, ptr, ptr, ptr, ptr, i8, i8, i8, i8, i32, i32, i32, i32, i32 }
%struct.GroupingFunc = type { %struct.Expr, ptr, ptr, ptr, i32, i32 }
%struct.ReturningExpr = type { %struct.Expr, i32, i8, ptr }

; Function Attrs: nounwind uwtable
define internal ptr @replace_correlation_vars_mutator(ptr noundef %0, ptr noundef %1) #0 {
  %3 = alloca ptr, align 8
  %4 = alloca ptr, align 8
  %5 = alloca ptr, align 8
  store ptr %0, ptr %4, align 8
  store ptr %1, ptr %5, align 8
  %6 = load ptr, ptr %4, align 8
  %7 = icmp eq ptr %6, null
  br i1 %7, label %8, label %9

8:                                                ; preds = %2
  store ptr null, ptr %3, align 8
  br label %105

9:                                                ; preds = %2
  %10 = load ptr, ptr %4, align 8
  %11 = getelementptr inbounds nuw %struct.Node, ptr %10, i32 0, i32 0
  %12 = load i32, ptr %11, align 4
  %13 = icmp eq i32 %12, 6
  br i1 %13, label %14, label %24

14:                                               ; preds = %9
  %15 = load ptr, ptr %4, align 8
  %16 = getelementptr inbounds nuw %struct.Var, ptr %15, i32 0, i32 7
  %17 = load i32, ptr %16, align 8
  %18 = icmp ugt i32 %17, 0
  br i1 %18, label %19, label %23

19:                                               ; preds = %14
  %20 = load ptr, ptr %5, align 8
  %21 = load ptr, ptr %4, align 8
  %22 = call ptr @replace_outer_var(ptr noundef %20, ptr noundef %21)
  store ptr %22, ptr %3, align 8
  br label %105

23:                                               ; preds = %14
  br label %24

24:                                               ; preds = %23, %9
  %25 = load ptr, ptr %4, align 8
  %26 = getelementptr inbounds nuw %struct.Node, ptr %25, i32 0, i32 0
  %27 = load i32, ptr %26, align 4
  %28 = icmp eq i32 %27, 318
  br i1 %28, label %29, label %39

29:                                               ; preds = %24
  %30 = load ptr, ptr %4, align 8
  %31 = getelementptr inbounds nuw %struct.PlaceHolderVar, ptr %30, i32 0, i32 5
  %32 = load i32, ptr %31, align 4
  %33 = icmp ugt i32 %32, 0
  br i1 %33, label %34, label %38

34:                                               ; preds = %29
  %35 = load ptr, ptr %5, align 8
  %36 = load ptr, ptr %4, align 8
  %37 = call ptr @replace_outer_placeholdervar(ptr noundef %35, ptr noundef %36)
  store ptr %37, ptr %3, align 8
  br label %105

38:                                               ; preds = %29
  br label %39

39:                                               ; preds = %38, %24
  %40 = load ptr, ptr %4, align 8
  %41 = getelementptr inbounds nuw %struct.Node, ptr %40, i32 0, i32 0
  %42 = load i32, ptr %41, align 4
  %43 = icmp eq i32 %42, 9
  br i1 %43, label %44, label %54

44:                                               ; preds = %39
  %45 = load ptr, ptr %4, align 8
  %46 = getelementptr inbounds nuw %struct.Aggref, ptr %45, i32 0, i32 16
  %47 = load i32, ptr %46, align 4
  %48 = icmp ugt i32 %47, 0
  br i1 %48, label %49, label %53

49:                                               ; preds = %44
  %50 = load ptr, ptr %5, align 8
  %51 = load ptr, ptr %4, align 8
  %52 = call ptr @replace_outer_agg(ptr noundef %50, ptr noundef %51)
  store ptr %52, ptr %3, align 8
  br label %105

53:                                               ; preds = %44
  br label %54

54:                                               ; preds = %53, %39
  %55 = load ptr, ptr %4, align 8
  %56 = getelementptr inbounds nuw %struct.Node, ptr %55, i32 0, i32 0
  %57 = load i32, ptr %56, align 4
  %58 = icmp eq i32 %57, 10
  br i1 %58, label %59, label %69

59:                                               ; preds = %54
  %60 = load ptr, ptr %4, align 8
  %61 = getelementptr inbounds nuw %struct.GroupingFunc, ptr %60, i32 0, i32 4
  %62 = load i32, ptr %61, align 8
  %63 = icmp ugt i32 %62, 0
  br i1 %63, label %64, label %68

64:                                               ; preds = %59
  %65 = load ptr, ptr %5, align 8
  %66 = load ptr, ptr %4, align 8
  %67 = call ptr @replace_outer_grouping(ptr noundef %65, ptr noundef %66)
  store ptr %67, ptr %3, align 8
  br label %105

68:                                               ; preds = %59
  br label %69

69:                                               ; preds = %68, %54
  %70 = load ptr, ptr %4, align 8
  %71 = getelementptr inbounds nuw %struct.Node, ptr %70, i32 0, i32 0
  %72 = load i32, ptr %71, align 4
  %73 = icmp eq i32 %72, 13
  br i1 %73, label %74, label %86

74:                                               ; preds = %69
  %75 = load ptr, ptr %5, align 8
  %76 = getelementptr inbounds nuw %struct.PlannerInfo, ptr %75, i32 0, i32 1
  %77 = load ptr, ptr %76, align 8
  %78 = getelementptr inbounds nuw %struct.Query, ptr %77, i32 0, i32 1
  %79 = load i32, ptr %78, align 4
  %80 = icmp ne i32 %79, 5
  br i1 %80, label %81, label %85

81:                                               ; preds = %74
  %82 = load ptr, ptr %5, align 8
  %83 = load ptr, ptr %4, align 8
  %84 = call ptr @replace_outer_merge_support(ptr noundef %82, ptr noundef %83)
  store ptr %84, ptr %3, align 8
  br label %105

85:                                               ; preds = %74
  br label %86

86:                                               ; preds = %85, %69
  %87 = load ptr, ptr %4, align 8
  %88 = getelementptr inbounds nuw %struct.Node, ptr %87, i32 0, i32 0
  %89 = load i32, ptr %88, align 4
  %90 = icmp eq i32 %89, 61
  br i1 %90, label %91, label %101

91:                                               ; preds = %86
  %92 = load ptr, ptr %4, align 8
  %93 = getelementptr inbounds nuw %struct.ReturningExpr, ptr %92, i32 0, i32 1
  %94 = load i32, ptr %93, align 4
  %95 = icmp sgt i32 %94, 0
  br i1 %95, label %96, label %100

96:                                               ; preds = %91
  %97 = load ptr, ptr %5, align 8
  %98 = load ptr, ptr %4, align 8
  %99 = call ptr @replace_outer_returning(ptr noundef %97, ptr noundef %98)
  store ptr %99, ptr %3, align 8
  br label %105

100:                                              ; preds = %91
  br label %101

101:                                              ; preds = %100, %86
  %102 = load ptr, ptr %4, align 8
  %103 = load ptr, ptr %5, align 8
  %104 = call ptr @expression_tree_mutator_impl(ptr noundef %102, ptr noundef @replace_correlation_vars_mutator, ptr noundef %103)
  store ptr %104, ptr %3, align 8
  br label %105

105:                                              ; preds = %101, %96, %81, %64, %49, %34, %19, %8
  %106 = load ptr, ptr %3, align 8
  ret ptr %106
}