; Function Attrs: nounwind uwtable
define internal ptr @replace_correlation_vars_mutator(ptr noundef %0, ptr noundef %1) #0 {
  %3 = icmp eq ptr %0, null
  br i1 %3, label %40, label %4

4:                                                ; preds = %2
  %5 = load i32, ptr %0, align 4
  switch i32 %5, label %.thread38 [
    i32 6, label %6
    i32 318, label %11
    i32 9, label %16
    i32 10, label %21
    i32 13, label %26
    i32 61, label %33
  ]

6:                                                ; preds = %4
  %7 = getelementptr inbounds nuw i8, ptr %0, i64 32
  %8 = load i32, ptr %7, align 8
  %.not = icmp eq i32 %8, 0
  br i1 %.not, label %.thread38, label %9

9:                                                ; preds = %6
  %10 = tail call ptr @replace_outer_var(ptr noundef %1, ptr noundef nonnull %0) #10
  br label %40

11:                                               ; preds = %4
  %12 = getelementptr inbounds nuw i8, ptr %0, i64 36
  %13 = load i32, ptr %12, align 4
  %.not29 = icmp eq i32 %13, 0
  br i1 %.not29, label %.thread38, label %14

14:                                               ; preds = %11
  %15 = tail call ptr @replace_outer_placeholdervar(ptr noundef %1, ptr noundef nonnull %0) #10
  br label %40

16:                                               ; preds = %4
  %17 = getelementptr inbounds nuw i8, ptr %0, i64 76
  %18 = load i32, ptr %17, align 4
  %.not30 = icmp eq i32 %18, 0
  br i1 %.not30, label %.thread38, label %19

19:                                               ; preds = %16
  %20 = tail call ptr @replace_outer_agg(ptr noundef %1, ptr noundef nonnull %0) #10
  br label %40

21:                                               ; preds = %4
  %22 = getelementptr inbounds nuw i8, ptr %0, i64 32
  %23 = load i32, ptr %22, align 8
  %.not31 = icmp eq i32 %23, 0
  br i1 %.not31, label %.thread38, label %24

24:                                               ; preds = %21
  %25 = tail call ptr @replace_outer_grouping(ptr noundef %1, ptr noundef nonnull %0) #10
  br label %40

26:                                               ; preds = %4
  %27 = getelementptr inbounds nuw i8, ptr %1, i64 8
  %28 = load ptr, ptr %27, align 8
  %29 = getelementptr inbounds nuw i8, ptr %28, i64 4
  %30 = load i32, ptr %29, align 4
  %.not32 = icmp eq i32 %30, 5
  br i1 %.not32, label %.thread38, label %31

31:                                               ; preds = %26
  %32 = tail call ptr @replace_outer_merge_support(ptr noundef nonnull %1, ptr noundef nonnull %0) #10
  br label %40

33:                                               ; preds = %4
  %34 = getelementptr inbounds nuw i8, ptr %0, i64 4
  %35 = load i32, ptr %34, align 4
  %36 = icmp sgt i32 %35, 0
  br i1 %36, label %37, label %.thread38

37:                                               ; preds = %33
  %38 = tail call ptr @replace_outer_returning(ptr noundef %1, ptr noundef nonnull %0) #10
  br label %40

.thread38:                                        ; preds = %4, %11, %6, %16, %21, %26, %33
  %39 = tail call ptr @expression_tree_mutator_impl(ptr noundef nonnull %0, ptr noundef nonnull @replace_correlation_vars_mutator, ptr noundef %1) #10
  br label %40

40:                                               ; preds = %2, %.thread38, %37, %31, %24, %19, %14, %9
  %.0 = phi ptr [ %10, %9 ], [ %15, %14 ], [ %20, %19 ], [ %25, %24 ], [ %32, %31 ], [ %38, %37 ], [ %39, %.thread38 ], [ null, %2 ]
  ret ptr %.0
}